target datalayout = "e-m:e-p270:32:32-p271:32:32-p272:64:64-i64:64-i128:128-f80:128-n8:16:32:64-S128"
target triple = "x86_64-pc-linux-gnu"

%struct.mbedtls_asn1_sequence = type { %struct.mbedtls_asn1_buf, ptr }
%struct.mbedtls_asn1_buf = type { i32, i64, ptr }

@.str.27 = private unnamed_addr constant [1 x i8] zeroinitializer, align 1
@.str.28 = private unnamed_addr constant [4 x i8] c"???\00", align 1
@.str.29 = private unnamed_addr constant [5 x i8] c"%s%s\00", align 1
@.str.30 = private unnamed_addr constant [3 x i8] c", \00", align 1

; Function Attrs: nounwind uwtable
define internal i32 @x509_info_cert_policies(ptr noundef %0, ptr noundef %1, ptr noundef %2) #0 {
  %4 = alloca i32, align 4
  %5 = alloca ptr, align 8
  %6 = alloca ptr, align 8
  %7 = alloca ptr, align 8
  %8 = alloca i32, align 4
  %9 = alloca ptr, align 8
  %10 = alloca i64, align 8
  %11 = alloca ptr, align 8
  %12 = alloca ptr, align 8
  %13 = alloca ptr, align 8
  %14 = alloca i32, align 4
  store ptr %0, ptr %5, align 8, !tbaa !62
  store ptr %1, ptr %6, align 8, !tbaa !65
  store ptr %2, ptr %7, align 8, !tbaa !67
  call void @llvm.lifetime.start.p0(i64 4, ptr %8) #10
  store i32 -110, ptr %8, align 4, !tbaa !12
  call void @llvm.lifetime.start.p0(i64 8, ptr %9) #10
  call void @llvm.lifetime.start.p0(i64 8, ptr %10) #10
  %15 = load ptr, ptr %6, align 8, !tbaa !65
  %16 = load i64, ptr %15, align 8, !tbaa !10
  store i64 %16, ptr %10, align 8, !tbaa !10
  call void @llvm.lifetime.start.p0(i64 8, ptr %11) #10
  %17 = load ptr, ptr %5, align 8, !tbaa !62
  %18 = load ptr, ptr %17, align 8, !tbaa !8
  store ptr %18, ptr %11, align 8, !tbaa !8
  call void @llvm.lifetime.start.p0(i64 8, ptr %12) #10
  %19 = load ptr, ptr %7, align 8, !tbaa !67
  store ptr %19, ptr %12, align 8, !tbaa !67
  call void @llvm.lifetime.start.p0(i64 8, ptr %13) #10
  store ptr @.str.27, ptr %13, align 8, !tbaa !8
  br label %20

20:                                               ; preds = %54, %3
  %21 = load ptr, ptr %12, align 8, !tbaa !67
  %22 = icmp ne ptr %21, null
  br i1 %22, label %23, label %58

23:                                               ; preds = %20
  %24 = load ptr, ptr %12, align 8, !tbaa !67
  %25 = getelementptr inbounds nuw %struct.mbedtls_asn1_sequence, ptr %24, i32 0, i32 0
  %26 = call i32 @mbedtls_oid_get_certificate_policies(ptr noundef %25, ptr noundef %9)
  %27 = icmp ne i32 %26, 0
  br i1 %27, label %28, label %29

28:                                               ; preds = %23
  store ptr @.str.28, ptr %9, align 8, !tbaa !8
  br label %29

29:                                               ; preds = %28, %23
  %30 = load ptr, ptr %11, align 8, !tbaa !8
  %31 = load i64, ptr %10, align 8, !tbaa !10
  %32 = load ptr, ptr %13, align 8, !tbaa !8
  %33 = load ptr, ptr %9, align 8, !tbaa !8
  %34 = call i32 (ptr, i64, ptr, ...) @snprintf(ptr noundef %30, i64 noundef %31, ptr noundef @.str.29, ptr noundef %32, ptr noundef %33) #10
  store i32 %34, ptr %8, align 4, !tbaa !12
  br label %35

35:                                               ; preds = %29
  %36 = load i32, ptr %8, align 4, !tbaa !12
  %37 = icmp slt i32 %36, 0
  br i1 %37, label %43, label %38

38:                                               ; preds = %35
  %39 = load i32, ptr %8, align 4, !tbaa !12
  %40 = sext i32 %39 to i64
  %41 = load i64, ptr %10, align 8, !tbaa !10
  %42 = icmp uge i64 %40, %41
  br i1 %42, label %43, label %44

43:                                               ; preds = %38, %35
  store i32 -10624, ptr %4, align 4
  store i32 1, ptr %14, align 4
  br label %63

44:                                               ; preds = %38
  %45 = load i32, ptr %8, align 4, !tbaa !12
  %46 = sext i32 %45 to i64
  %47 = load i64, ptr %10, align 8, !tbaa !10
  %48 = sub i64 %47, %46
  store i64 %48, ptr %10, align 8, !tbaa !10
  %49 = load i32, ptr %8, align 4, !tbaa !12
  %50 = sext i32 %49 to i64
  %51 = load ptr, ptr %11, align 8, !tbaa !8
  %52 = getelementptr inbounds nuw i8, ptr %51, i64 %50
  store ptr %52, ptr %11, align 8, !tbaa !8
  br label %53

53:                                               ; preds = %44
  br label %54

54:                                               ; preds = %53
  store ptr @.str.30, ptr %13, align 8, !tbaa !8
  %55 = load ptr, ptr %12, align 8, !tbaa !67
  %56 = getelementptr inbounds nuw %struct.mbedtls_asn1_sequence, ptr %55, i32 0, i32 1
  %57 = load ptr, ptr %56, align 8, !tbaa !68
  store ptr %57, ptr %12, align 8, !tbaa !67
  br label %20, !llvm.loop !70

58:                                               ; preds = %20
  %59 = load i64, ptr %10, align 8, !tbaa !10
  %60 = load ptr, ptr %6, align 8, !tbaa !65
  store i64 %59, ptr %60, align 8, !tbaa !10
  %61 = load ptr, ptr %11, align 8, !tbaa !8
  %62 = load ptr, ptr %5, align 8, !tbaa !62
  store ptr %61, ptr %62, align 8, !tbaa !8
  store i32 0, ptr %4, align 4
  store i32 1, ptr %14, align 4
  br label %63

63:                                               ; preds = %58, %43
  call void @llvm.lifetime.end.p0(i64 8, ptr %13) #10
  call void @llvm.lifetime.end.p0(i64 8, ptr %12) #10
  call void @llvm.lifetime.end.p0(i64 8, ptr %11) #10
  call void @llvm.lifetime.end.p0(i64 8, ptr %10) #10
  call void @llvm.lifetime.end.p0(i64 8, ptr %9) #10
  call void @llvm.lifetime.end.p0(i64 4, ptr %8) #10
  %64 = load i32, ptr %4, align 4
  ret i32 %64
}